; Function Attrs: mustprogress nounwind uwtable
define internal void @_ZZ26WB_AsyncHandshakeWalkStackEN16TraceSelfClosure9do_threadEP6Thread(ptr nocapture nonnull readnone align 8 %0, ptr noundef %1) unnamed_addr #0 align 2 {
  %3 = tail call align 8 ptr @llvm.threadlocal.address.p0(ptr align 8 @_ZN6Thread12_thr_currentE)
  %4 = load ptr, ptr %3, align 8
  %5 = getelementptr inbounds i8, ptr %4, i64 800
  %6 = load ptr, ptr %5, align 8
  %7 = getelementptr inbounds i8, ptr %6, i64 24
  %8 = load ptr, ptr %7, align 8
  %9 = getelementptr inbounds i8, ptr %6, i64 32
  %10 = load ptr, ptr %9, align 8
  %11 = getelementptr inbounds i8, ptr %6, i64 40
  %12 = load ptr, ptr %11, align 8
  %13 = getelementptr inbounds i8, ptr %6, i64 8
  %14 = load i64, ptr %13, align 8
  %15 = load ptr, ptr @tty, align 8
  %16 = load ptr, ptr %1, align 8
  %17 = getelementptr inbounds i8, ptr %16, i64 200
  %18 = load ptr, ptr %17, align 8
  tail call void %18(ptr noundef nonnull align 8 dereferenceable(1800) %1, ptr noundef %15) #15
  %19 = load ptr, ptr @tty, align 8
  tail call void @_ZN10JavaThread14print_stack_onEP12outputStream(ptr noundef nonnull align 8 dereferenceable(1800) %1, ptr noundef %19) #15
  %20 = load ptr, ptr @tty, align 8
  tail call void @_ZN12outputStream2crEv(ptr noundef nonnull align 8 dereferenceable(56) %20) #15
  %21 = load ptr, ptr %8, align 8
  %.not.i.i.i.i = icmp eq ptr %21, null
  br i1 %.not.i.i.i.i, label %23, label %22

22:                                               ; preds = %2
  tail call void @_ZN5Arena17set_size_in_bytesEm(ptr noundef nonnull align 8 dereferenceable(48) %6, i64 noundef %14) #15
  tail call void @_ZN5Chunk9next_chopEPS_(ptr noundef nonnull %8) #15
  br label %23

23:                                               ; preds = %22, %2
  %24 = load ptr, ptr %9, align 8
  %.not8.i.i.i.i = icmp eq ptr %24, %10
  br i1 %.not8.i.i.i.i, label %_ZN12ResourceMarkD2Ev.exit, label %25

25:                                               ; preds = %23
  store ptr %8, ptr %7, align 8
  store ptr %10, ptr %9, align 8
  store ptr %12, ptr %11, align 8
  br label %_ZN12ResourceMarkD2Ev.exit

_ZN12ResourceMarkD2Ev.exit:                       ; preds = %23, %25
  ret void
}